; Function Attrs: nofree norecurse nosync nounwind memory(argmem: read) uwtable
define noundef ptr @Io_ReadDsdFindEnd(ptr noundef readonly %0) local_unnamed_addr #0 {
  br label %2

2:                                                ; preds = %10, %1
  %.09 = phi ptr [ %0, %1 ], [ %11, %10 ]
  %.0 = phi i32 [ 0, %1 ], [ %.1, %10 ]
  %3 = load i8, ptr %.09, align 1
  switch i8 %3, label %8 [
    i8 0, label %12
    i8 40, label %4
    i8 41, label %6
  ]

4:                                                ; preds = %2
  %5 = add nsw i32 %.0, 1
  br label %8

6:                                                ; preds = %2
  %7 = add nsw i32 %.0, -1
  br label %8

8:                                                ; preds = %2, %6, %4
  %.1 = phi i32 [ %5, %4 ], [ %7, %6 ], [ %.0, %2 ]
  %9 = icmp eq i32 %.1, 0
  br i1 %9, label %12, label %10

10:                                               ; preds = %8
  %11 = getelementptr inbounds nuw i8, ptr %.09, i64 1
  br label %2, !llvm.loop !4

12:                                               ; preds = %2, %8
  %.010 = phi ptr [ %.09, %8 ], [ null, %2 ]
  ret ptr %.010
}